; Function Attrs: nofree norecurse nosync nounwind memory(read, argmem: readwrite, inaccessiblemem: none) uwtable
define internal void @yuv2planeX_12LE_c(ptr noundef readonly captures(none) %0, i32 noundef %1, ptr noundef readonly captures(none) %2, ptr noundef writeonly captures(none) %3, i32 noundef %4, ptr readnone captures(none) %5, i32 %6) #3 {
  %8 = icmp sgt i32 %4, 0
  br i1 %8, label %.preheader.lr.ph, label %yuv2planeX_10_c_template.exit

.preheader.lr.ph:                                 ; preds = %7
  %9 = icmp sgt i32 %1, 0
  br i1 %9, label %.preheader.us.preheader, label %.preheader.preheader

.preheader.preheader:                             ; preds = %.preheader.lr.ph
  %10 = shl nuw i32 %4, 1
  %11 = zext i32 %10 to i64
  tail call void @llvm.memset.p0.i64(ptr align 1 %3, i8 0, i64 %11, i1 false), !tbaa !41
  br label %yuv2planeX_10_c_template.exit

.preheader.us.preheader:                          ; preds = %.preheader.lr.ph
  %wide.trip.count13 = zext nneg i32 %4 to i64
  %wide.trip.count = zext nneg i32 %1 to i64
  br label %.preheader.us

.preheader.us:                                    ; preds = %.preheader.us.preheader, %._crit_edge.us
  %indvars.iv10 = phi i64 [ 0, %.preheader.us.preheader ], [ %indvars.iv.next11, %._crit_edge.us ]
  br label %12

12:                                               ; preds = %.preheader.us, %12
  %indvars.iv = phi i64 [ 0, %.preheader.us ], [ %indvars.iv.next, %12 ]
  %.024.i4.us = phi i32 [ 16384, %.preheader.us ], [ %22, %12 ]
  %13 = getelementptr inbounds nuw ptr, ptr %2, i64 %indvars.iv
  %14 = load ptr, ptr %13, align 8, !tbaa !43
  %15 = getelementptr inbounds nuw i16, ptr %14, i64 %indvars.iv10
  %16 = load i16, ptr %15, align 2, !tbaa !39
  %17 = sext i16 %16 to i32
  %18 = getelementptr inbounds nuw i16, ptr %0, i64 %indvars.iv
  %19 = load i16, ptr %18, align 2, !tbaa !39
  %20 = sext i16 %19 to i32
  %21 = mul nsw i32 %20, %17
  %22 = add nsw i32 %21, %.024.i4.us
  %indvars.iv.next = add nuw nsw i64 %indvars.iv, 1
  %exitcond.not = icmp eq i64 %indvars.iv.next, %wide.trip.count
  br i1 %exitcond.not, label %._crit_edge.us, label %12, !llvm.loop !55

._crit_edge.us:                                   ; preds = %12
  %23 = ashr i32 %22, 15
  %24 = tail call i32 @llvm.smax.i32(i32 %23, i32 0)
  %25 = tail call i32 @llvm.umin.i32(i32 %24, i32 4095)
  %26 = trunc nuw nsw i32 %25 to i16
  %27 = getelementptr inbounds nuw i16, ptr %3, i64 %indvars.iv10
  store i16 %26, ptr %27, align 1, !tbaa !41
  %indvars.iv.next11 = add nuw nsw i64 %indvars.iv10, 1
  %exitcond14.not = icmp eq i64 %indvars.iv.next11, %wide.trip.count13
  br i1 %exitcond14.not, label %yuv2planeX_10_c_template.exit, label %.preheader.us, !llvm.loop !56

yuv2planeX_10_c_template.exit:                    ; preds = %._crit_edge.us, %.preheader.preheader, %7
  ret void
}